; Function Attrs: mustprogress nofree norecurse nosync nounwind willreturn memory(read, inaccessiblemem: none) uwtable
define hidden noundef i32 @_ZNK3sat10simplifier18num_nonlearned_binENS_7literalE(ptr nocapture noundef nonnull readonly align 8 dereferenceable(288) %this, i32 %l.coerce) local_unnamed_addr #9 align 2 {
entry:
  %xor.i = xor i32 %l.coerce, 1
  %0 = load ptr, ptr %this, align 8
  %m_watches.i.i = getelementptr inbounds i8, ptr %0, i64 3432
  %1 = load ptr, ptr %m_watches.i.i, align 8
  %idxprom.i.i.i = zext i32 %xor.i to i64
  %arrayidx.i.i.i = getelementptr inbounds %class.vector.51, ptr %1, i64 %idxprom.i.i.i
  %2 = load ptr, ptr %arrayidx.i.i.i, align 8
  %cmp.i.i = icmp eq ptr %2, null
  br i1 %cmp.i.i, label %for.end, label %_ZNK6vectorIN3sat7watchedELb1EjE3endEv.exit

_ZNK6vectorIN3sat7watchedELb1EjE3endEv.exit:      ; preds = %entry
  %arrayidx.i.i = getelementptr inbounds i8, ptr %2, i64 -4
  %3 = load i32, ptr %arrayidx.i.i, align 4
  %4 = zext i32 %3 to i64
  %add.ptr.i = getelementptr inbounds %"class.sat::watched", ptr %2, i64 %4
  %cmp.not5 = icmp eq i32 %3, 0
  br i1 %cmp.not5, label %for.end, label %for.body

for.body:                                         ; preds = %_ZNK6vectorIN3sat7watchedELb1EjE3endEv.exit, %for.body
  %r.07 = phi i32 [ %spec.select, %for.body ], [ 0, %_ZNK6vectorIN3sat7watchedELb1EjE3endEv.exit ]
  %__begin1.06 = phi ptr [ %incdec.ptr, %for.body ], [ %2, %_ZNK6vectorIN3sat7watchedELb1EjE3endEv.exit ]
  %m_val2.i.i.i = getelementptr inbounds i8, ptr %__begin1.06, i64 8
  %5 = load i32, ptr %m_val2.i.i.i, align 8
  %6 = and i32 %5, 7
  %7 = icmp eq i32 %6, 0
  %inc = zext i1 %7 to i32
  %spec.select = add i32 %r.07, %inc
  %incdec.ptr = getelementptr inbounds i8, ptr %__begin1.06, i64 16
  %cmp.not = icmp eq ptr %incdec.ptr, %add.ptr.i
  br i1 %cmp.not, label %for.end, label %for.body

for.end:                                          ; preds = %for.body, %entry, %_ZNK6vectorIN3sat7watchedELb1EjE3endEv.exit
  %r.0.lcssa = phi i32 [ 0, %_ZNK6vectorIN3sat7watchedELb1EjE3endEv.exit ], [ 0, %entry ], [ %spec.select, %for.body ]
  ret i32 %r.0.lcssa
}